target datalayout = "e-m:e-p270:32:32-p271:32:32-p272:64:64-i64:64-i128:128-f80:128-n8:16:32:64-S128"
target triple = "x86_64-pc-linux-gnu"

%struct.SDL_CameraDriver = type { ptr, ptr, %struct.SDL_CameraDriverImpl, ptr, ptr, %struct.SDL_PendingCameraEvent, ptr, %struct.SDL_AtomicInt, %struct.SDL_AtomicInt }
%struct.SDL_CameraDriverImpl = type { ptr, ptr, ptr, ptr, ptr, ptr, ptr, ptr, i8 }
%struct.SDL_PendingCameraEvent = type { i32, i32, ptr }
%struct.SDL_AtomicInt = type { i32 }
%union.SDL_Event = type { %struct.SDL_MouseWheelEvent, [72 x i8] }
%struct.SDL_MouseWheelEvent = type { i32, i32, i64, i32, i32, float, float, i32, float, float, i32, i32 }
%struct.SDL_CameraDeviceEvent = type { i32, i32, i64, i32 }

@camera_driver = internal global %struct.SDL_CameraDriver zeroinitializer, align 8

; Function Attrs: nounwind uwtable
define hidden void @SDL_UpdateCamera() #0 {
  %1 = alloca ptr, align 8
  %2 = alloca i32, align 4
  %3 = alloca ptr, align 8
  %4 = alloca ptr, align 8
  %5 = alloca %union.SDL_Event, align 8
  %6 = load ptr, ptr getelementptr inbounds nuw (%struct.SDL_CameraDriver, ptr @camera_driver, i32 0, i32 3), align 8
  call void @SDL_LockRWLockForReading_REAL(ptr noundef %6)
  call void @llvm.lifetime.start.p0(i64 8, ptr %1) #7
  %7 = load ptr, ptr getelementptr inbounds nuw (%struct.SDL_PendingCameraEvent, ptr getelementptr inbounds nuw (%struct.SDL_CameraDriver, ptr @camera_driver, i32 0, i32 5), i32 0, i32 2), align 8
  store ptr %7, ptr %1, align 8
  %8 = load ptr, ptr getelementptr inbounds nuw (%struct.SDL_CameraDriver, ptr @camera_driver, i32 0, i32 3), align 8
  call void @SDL_UnlockRWLock_REAL(ptr noundef %8)
  %9 = load ptr, ptr %1, align 8
  %10 = icmp ne ptr %9, null
  br i1 %10, label %12, label %11

11:                                               ; preds = %0
  store i32 1, ptr %2, align 4
  br label %43

12:                                               ; preds = %0
  %13 = load ptr, ptr getelementptr inbounds nuw (%struct.SDL_CameraDriver, ptr @camera_driver, i32 0, i32 3), align 8
  call void @SDL_LockRWLockForWriting_REAL(ptr noundef %13)
  %14 = load ptr, ptr getelementptr inbounds nuw (%struct.SDL_PendingCameraEvent, ptr getelementptr inbounds nuw (%struct.SDL_CameraDriver, ptr @camera_driver, i32 0, i32 5), i32 0, i32 2), align 8
  store ptr %14, ptr %1, align 8
  store ptr null, ptr getelementptr inbounds nuw (%struct.SDL_PendingCameraEvent, ptr getelementptr inbounds nuw (%struct.SDL_CameraDriver, ptr @camera_driver, i32 0, i32 5), i32 0, i32 2), align 8
  store ptr getelementptr inbounds nuw (%struct.SDL_CameraDriver, ptr @camera_driver, i32 0, i32 5), ptr getelementptr inbounds nuw (%struct.SDL_CameraDriver, ptr @camera_driver, i32 0, i32 6), align 8
  %15 = load ptr, ptr getelementptr inbounds nuw (%struct.SDL_CameraDriver, ptr @camera_driver, i32 0, i32 3), align 8
  call void @SDL_UnlockRWLock_REAL(ptr noundef %15)
  call void @llvm.lifetime.start.p0(i64 8, ptr %3) #7
  store ptr null, ptr %3, align 8
  call void @llvm.lifetime.start.p0(i64 8, ptr %4) #7
  %16 = load ptr, ptr %1, align 8
  store ptr %16, ptr %4, align 8
  br label %17

17:                                               ; preds = %40, %12
  %18 = load ptr, ptr %4, align 8
  %19 = icmp ne ptr %18, null
  br i1 %19, label %21, label %20

20:                                               ; preds = %17
  store i32 2, ptr %2, align 4
  call void @llvm.lifetime.end.p0(i64 8, ptr %4) #7
  br label %42

21:                                               ; preds = %17
  %22 = load ptr, ptr %4, align 8
  %23 = getelementptr inbounds nuw %struct.SDL_PendingCameraEvent, ptr %22, i32 0, i32 2
  %24 = load ptr, ptr %23, align 8
  store ptr %24, ptr %3, align 8
  %25 = load ptr, ptr %4, align 8
  %26 = getelementptr inbounds nuw %struct.SDL_PendingCameraEvent, ptr %25, i32 0, i32 0
  %27 = load i32, ptr %26, align 8
  %28 = call zeroext i1 @SDL_EventEnabled_REAL(i32 noundef %27)
  br i1 %28, label %29, label %38

29:                                               ; preds = %21
  call void @llvm.lifetime.start.p0(i64 128, ptr %5) #7
  call void @llvm.memset.p0.i64(ptr align 8 %5, i8 0, i64 128, i1 false)
  %30 = load ptr, ptr %4, align 8
  %31 = getelementptr inbounds nuw %struct.SDL_PendingCameraEvent, ptr %30, i32 0, i32 0
  %32 = load i32, ptr %31, align 8
  store i32 %32, ptr %5, align 8
  %33 = load ptr, ptr %4, align 8
  %34 = getelementptr inbounds nuw %struct.SDL_PendingCameraEvent, ptr %33, i32 0, i32 1
  %35 = load i32, ptr %34, align 4
  %36 = getelementptr inbounds nuw %struct.SDL_CameraDeviceEvent, ptr %5, i32 0, i32 3
  store i32 %35, ptr %36, align 8
  %37 = call zeroext i1 @SDL_PushEvent_REAL(ptr noundef %5)
  call void @llvm.lifetime.end.p0(i64 128, ptr %5) #7
  br label %38

38:                                               ; preds = %29, %21
  %39 = load ptr, ptr %4, align 8
  call void @SDL_free_REAL(ptr noundef %39)
  br label %40

40:                                               ; preds = %38
  %41 = load ptr, ptr %3, align 8
  store ptr %41, ptr %4, align 8
  br label %17, !llvm.loop !26

42:                                               ; preds = %20
  call void @llvm.lifetime.end.p0(i64 8, ptr %3) #7
  store i32 0, ptr %2, align 4
  br label %43

43:                                               ; preds = %42, %11
  call void @llvm.lifetime.end.p0(i64 8, ptr %1) #7
  %44 = load i32, ptr %2, align 4
  switch i32 %44, label %46 [
    i32 0, label %45
    i32 1, label %45
  ]

45:                                               ; preds = %43, %43
  ret void

46:                                               ; preds = %43
  unreachable
}