; Function Attrs: nounwind uwtable
define hidden void @SDL_UpdateCamera() local_unnamed_addr #1 {
  %1 = alloca %union.SDL_Event, align 8
  %2 = load ptr, ptr getelementptr inbounds nuw (i8, ptr @camera_driver, i64 88), align 8
  tail call void @SDL_LockRWLockForReading_REAL(ptr noundef %2) #11
  %3 = load ptr, ptr getelementptr inbounds nuw (i8, ptr @camera_driver, i64 112), align 8
  %4 = load ptr, ptr getelementptr inbounds nuw (i8, ptr @camera_driver, i64 88), align 8
  tail call void @SDL_UnlockRWLock_REAL(ptr noundef %4) #11
  %.not = icmp eq ptr %3, null
  br i1 %.not, label %.loopexit, label %5

5:                                                ; preds = %0
  %6 = load ptr, ptr getelementptr inbounds nuw (i8, ptr @camera_driver, i64 88), align 8
  tail call void @SDL_LockRWLockForWriting_REAL(ptr noundef %6) #11
  %7 = load ptr, ptr getelementptr inbounds nuw (i8, ptr @camera_driver, i64 112), align 8
  store ptr null, ptr getelementptr inbounds nuw (i8, ptr @camera_driver, i64 112), align 8
  store ptr getelementptr inbounds nuw (i8, ptr @camera_driver, i64 104), ptr getelementptr inbounds nuw (i8, ptr @camera_driver, i64 120), align 8
  %8 = load ptr, ptr getelementptr inbounds nuw (i8, ptr @camera_driver, i64 88), align 8
  tail call void @SDL_UnlockRWLock_REAL(ptr noundef %8) #11
  %.not910 = icmp eq ptr %7, null
  br i1 %.not910, label %.loopexit, label %.lr.ph

.lr.ph:                                           ; preds = %5
  %9 = getelementptr inbounds nuw i8, ptr %1, i64 16
  br label %10

10:                                               ; preds = %.lr.ph, %20
  %.011 = phi ptr [ %7, %.lr.ph ], [ %12, %20 ]
  %11 = getelementptr inbounds nuw i8, ptr %.011, i64 8
  %12 = load ptr, ptr %11, align 8
  %13 = load i32, ptr %.011, align 8
  %14 = call zeroext i1 @SDL_EventEnabled_REAL(i32 noundef %13) #11
  br i1 %14, label %15, label %20

15:                                               ; preds = %10
  call void @llvm.lifetime.start.p0(i64 128, ptr nonnull %1) #11
  call void @llvm.memset.p0.i64(ptr noundef nonnull align 8 dereferenceable(128) %1, i8 0, i64 128, i1 false)
  %16 = load i32, ptr %.011, align 8
  store i32 %16, ptr %1, align 8
  %17 = getelementptr inbounds nuw i8, ptr %.011, i64 4
  %18 = load i32, ptr %17, align 4
  store i32 %18, ptr %9, align 8
  %19 = call zeroext i1 @SDL_PushEvent_REAL(ptr noundef nonnull %1) #11
  call void @llvm.lifetime.end.p0(i64 128, ptr nonnull %1) #11
  br label %20

20:                                               ; preds = %15, %10
  call void @SDL_free_REAL(ptr noundef nonnull %.011) #11
  %.not9 = icmp eq ptr %12, null
  br i1 %.not9, label %.loopexit, label %10, !llvm.loop !25

.loopexit:                                        ; preds = %20, %5, %0
  ret void
}